target datalayout = "e-m:e-p270:32:32-p271:32:32-p272:64:64-i64:64-i128:128-f80:128-n8:16:32:64-S128"
target triple = "x86_64-unknown-linux-gnu"

%struct.ec_key_st = type { ptr, ptr, ptr, i32, i32, i32, ptr, %struct.crypto_ex_data_st }
%struct.crypto_ex_data_st = type { ptr }
%struct.cbb_st = type { ptr, ptr, i64, i8, i8, i8 }

@.str = private unnamed_addr constant [123 x i8] c"generated/home/dtcxzyw/WorkSpace/Projects/compilers/llvm-opt-benchmark/bench/libquic/libquic/boringssl/crypto/ec/ec_asn1.c\00", align 1

; Function Attrs: nounwind uwtable
define hidden i32 @EC_KEY_marshal_private_key(ptr noundef %cbb, ptr noundef %key, i32 noundef %enc_flags) #0 {
entry:
  %retval = alloca i32, align 4
  %cbb.addr = alloca ptr, align 8
  %key.addr = alloca ptr, align 8
  %enc_flags.addr = alloca i32, align 4
  %ec_private_key = alloca %struct.cbb_st, align 8
  %private_key = alloca %struct.cbb_st, align 8
  %child = alloca %struct.cbb_st, align 8
  %child38 = alloca %struct.cbb_st, align 8
  %public_key = alloca %struct.cbb_st, align 8
  store ptr %cbb, ptr %cbb.addr, align 8
  store ptr %key, ptr %key.addr, align 8
  store i32 %enc_flags, ptr %enc_flags.addr, align 4
  %0 = load ptr, ptr %key.addr, align 8
  %cmp = icmp eq ptr %0, null
  br i1 %cmp, label %if.then, label %lor.lhs.false

lor.lhs.false:                                    ; preds = %entry
  %1 = load ptr, ptr %key.addr, align 8
  %group = getelementptr inbounds %struct.ec_key_st, ptr %1, i32 0, i32 0
  %2 = load ptr, ptr %group, align 8
  %cmp1 = icmp eq ptr %2, null
  br i1 %cmp1, label %if.then, label %lor.lhs.false2

lor.lhs.false2:                                   ; preds = %lor.lhs.false
  %3 = load ptr, ptr %key.addr, align 8
  %priv_key = getelementptr inbounds %struct.ec_key_st, ptr %3, i32 0, i32 2
  %4 = load ptr, ptr %priv_key, align 8
  %cmp3 = icmp eq ptr %4, null
  br i1 %cmp3, label %if.then, label %if.end

if.then:                                          ; preds = %lor.lhs.false2, %lor.lhs.false, %entry
  call void @ERR_put_error(i32 noundef 15, i32 noundef 0, i32 noundef 67, ptr noundef @.str, i32 noundef 194)
  store i32 0, ptr %retval, align 4
  br label %return

if.end:                                           ; preds = %lor.lhs.false2
  %5 = load ptr, ptr %cbb.addr, align 8
  %call = call i32 @CBB_add_asn1(ptr noundef %5, ptr noundef %ec_private_key, i8 noundef zeroext 48)
  %tobool = icmp ne i32 %call, 0
  br i1 %tobool, label %lor.lhs.false4, label %if.then17

lor.lhs.false4:                                   ; preds = %if.end
  %call5 = call i32 @CBB_add_asn1_uint64(ptr noundef %ec_private_key, i64 noundef 1)
  %tobool6 = icmp ne i32 %call5, 0
  br i1 %tobool6, label %lor.lhs.false7, label %if.then17

lor.lhs.false7:                                   ; preds = %lor.lhs.false4
  %call8 = call i32 @CBB_add_asn1(ptr noundef %ec_private_key, ptr noundef %private_key, i8 noundef zeroext 4)
  %tobool9 = icmp ne i32 %call8, 0
  br i1 %tobool9, label %lor.lhs.false10, label %if.then17

lor.lhs.false10:                                  ; preds = %lor.lhs.false7
  %6 = load ptr, ptr %key.addr, align 8
  %group11 = getelementptr inbounds %struct.ec_key_st, ptr %6, i32 0, i32 0
  %7 = load ptr, ptr %group11, align 8
  %call12 = call ptr @EC_GROUP_get0_order(ptr noundef %7)
  %call13 = call i32 @BN_num_bytes(ptr noundef %call12)
  %conv = zext i32 %call13 to i64
  %8 = load ptr, ptr %key.addr, align 8
  %priv_key14 = getelementptr inbounds %struct.ec_key_st, ptr %8, i32 0, i32 2
  %9 = load ptr, ptr %priv_key14, align 8
  %call15 = call i32 @BN_bn2cbb_padded(ptr noundef %private_key, i64 noundef %conv, ptr noundef %9)
  %tobool16 = icmp ne i32 %call15, 0
  br i1 %tobool16, label %if.end18, label %if.then17

if.then17:                                        ; preds = %lor.lhs.false10, %lor.lhs.false7, %lor.lhs.false4, %if.end
  call void @ERR_put_error(i32 noundef 15, i32 noundef 0, i32 noundef 129, ptr noundef @.str, i32 noundef 205)
  store i32 0, ptr %retval, align 4
  br label %return

if.end18:                                         ; preds = %lor.lhs.false10
  %10 = load i32, ptr %enc_flags.addr, align 4
  %and = and i32 %10, 1
  %tobool19 = icmp ne i32 %and, 0
  br i1 %tobool19, label %if.end32, label %if.then20

if.then20:                                        ; preds = %if.end18
  %call21 = call i32 @CBB_add_asn1(ptr noundef %ec_private_key, ptr noundef %child, i8 noundef zeroext -96)
  %tobool22 = icmp ne i32 %call21, 0
  br i1 %tobool22, label %lor.lhs.false23, label %if.then30

lor.lhs.false23:                                  ; preds = %if.then20
  %11 = load ptr, ptr %key.addr, align 8
  %group24 = getelementptr inbounds %struct.ec_key_st, ptr %11, i32 0, i32 0
  %12 = load ptr, ptr %group24, align 8
  %call25 = call i32 @EC_KEY_marshal_curve_name(ptr noundef %child, ptr noundef %12)
  %tobool26 = icmp ne i32 %call25, 0
  br i1 %tobool26, label %lor.lhs.false27, label %if.then30

lor.lhs.false27:                                  ; preds = %lor.lhs.false23
  %call28 = call i32 @CBB_flush(ptr noundef %ec_private_key)
  %tobool29 = icmp ne i32 %call28, 0
  br i1 %tobool29, label %if.end31, label %if.then30

if.then30:                                        ; preds = %lor.lhs.false27, %lor.lhs.false23, %if.then20
  call void @ERR_put_error(i32 noundef 15, i32 noundef 0, i32 noundef 129, ptr noundef @.str, i32 noundef 214)
  store i32 0, ptr %retval, align 4
  br label %return

if.end31:                                         ; preds = %lor.lhs.false27
  br label %if.end32

if.end32:                                         ; preds = %if.end31, %if.end18
  %13 = load i32, ptr %enc_flags.addr, align 4
  %and33 = and i32 %13, 2
  %tobool34 = icmp ne i32 %and33, 0
  br i1 %tobool34, label %if.end57, label %land.lhs.true

land.lhs.true:                                    ; preds = %if.end32
  %14 = load ptr, ptr %key.addr, align 8
  %pub_key = getelementptr inbounds %struct.ec_key_st, ptr %14, i32 0, i32 1
  %15 = load ptr, ptr %pub_key, align 8
  %cmp35 = icmp ne ptr %15, null
  br i1 %cmp35, label %if.then37, label %if.end57

if.then37:                                        ; preds = %land.lhs.true
  %call39 = call i32 @CBB_add_asn1(ptr noundef %ec_private_key, ptr noundef %child38, i8 noundef zeroext -95)
  %tobool40 = icmp ne i32 %call39, 0
  br i1 %tobool40, label %lor.lhs.false41, label %if.then55

lor.lhs.false41:                                  ; preds = %if.then37
  %call42 = call i32 @CBB_add_asn1(ptr noundef %child38, ptr noundef %public_key, i8 noundef zeroext 3)
  %tobool43 = icmp ne i32 %call42, 0
  br i1 %tobool43, label %lor.lhs.false44, label %if.then55

lor.lhs.false44:                                  ; preds = %lor.lhs.false41
  %call45 = call i32 @CBB_add_u8(ptr noundef %public_key, i8 noundef zeroext 0)
  %tobool46 = icmp ne i32 %call45, 0
  br i1 %tobool46, label %lor.lhs.false47, label %if.then55

lor.lhs.false47:                                  ; preds = %lor.lhs.false44
  %16 = load ptr, ptr %key.addr, align 8
  %group48 = getelementptr inbounds %struct.ec_key_st, ptr %16, i32 0, i32 0
  %17 = load ptr, ptr %group48, align 8
  %18 = load ptr, ptr %key.addr, align 8
  %pub_key49 = getelementptr inbounds %struct.ec_key_st, ptr %18, i32 0, i32 1
  %19 = load ptr, ptr %pub_key49, align 8
  %20 = load ptr, ptr %key.addr, align 8
  %conv_form = getelementptr inbounds %struct.ec_key_st, ptr %20, i32 0, i32 4
  %21 = load i32, ptr %conv_form, align 4
  %call50 = call i32 @EC_POINT_point2cbb(ptr noundef %public_key, ptr noundef %17, ptr noundef %19, i32 noundef %21, ptr noundef null)
  %tobool51 = icmp ne i32 %call50, 0
  br i1 %tobool51, label %lor.lhs.false52, label %if.then55

lor.lhs.false52:                                  ; preds = %lor.lhs.false47
  %call53 = call i32 @CBB_flush(ptr noundef %ec_private_key)
  %tobool54 = icmp ne i32 %call53, 0
  br i1 %tobool54, label %if.end56, label %if.then55

if.then55:                                        ; preds = %lor.lhs.false52, %lor.lhs.false47, %lor.lhs.false44, %lor.lhs.false41, %if.then37
  call void @ERR_put_error(i32 noundef 15, i32 noundef 0, i32 noundef 129, ptr noundef @.str, i32 noundef 230)
  store i32 0, ptr %retval, align 4
  br label %return

if.end56:                                         ; preds = %lor.lhs.false52
  br label %if.end57

if.end57:                                         ; preds = %if.end56, %land.lhs.true, %if.end32
  %22 = load ptr, ptr %cbb.addr, align 8
  %call58 = call i32 @CBB_flush(ptr noundef %22)
  %tobool59 = icmp ne i32 %call58, 0
  br i1 %tobool59, label %if.end61, label %if.then60

if.then60:                                        ; preds = %if.end57
  call void @ERR_put_error(i32 noundef 15, i32 noundef 0, i32 noundef 129, ptr noundef @.str, i32 noundef 236)
  store i32 0, ptr %retval, align 4
  br label %return

if.end61:                                         ; preds = %if.end57
  store i32 1, ptr %retval, align 4
  br label %return

return:                                           ; preds = %if.end61, %if.then60, %if.then55, %if.then30, %if.then17, %if.then
  %23 = load i32, ptr %retval, align 4
  ret i32 %23
}