; Function Attrs: nounwind uwtable
define hidden range(i32 0, 2) i32 @EC_KEY_marshal_private_key(ptr noundef %cbb, ptr noundef readonly %key, i32 noundef %enc_flags) local_unnamed_addr #0 {
entry:
  %ec_private_key = alloca %struct.cbb_st, align 8
  %private_key = alloca %struct.cbb_st, align 8
  %child = alloca %struct.cbb_st, align 8
  %child38 = alloca %struct.cbb_st, align 8
  %public_key = alloca %struct.cbb_st, align 8
  %cmp = icmp eq ptr %key, null
  br i1 %cmp, label %if.then, label %lor.lhs.false

lor.lhs.false:                                    ; preds = %entry
  %0 = load ptr, ptr %key, align 8
  %cmp1 = icmp eq ptr %0, null
  br i1 %cmp1, label %if.then, label %lor.lhs.false2

lor.lhs.false2:                                   ; preds = %lor.lhs.false
  %priv_key = getelementptr inbounds nuw i8, ptr %key, i64 16
  %1 = load ptr, ptr %priv_key, align 8
  %cmp3 = icmp eq ptr %1, null
  br i1 %cmp3, label %if.then, label %if.end

if.then:                                          ; preds = %lor.lhs.false2, %lor.lhs.false, %entry
  tail call void @ERR_put_error(i32 noundef 15, i32 noundef 0, i32 noundef 67, ptr noundef nonnull @.str, i32 noundef 194) #7
  br label %return

if.end:                                           ; preds = %lor.lhs.false2
  %call = call i32 @CBB_add_asn1(ptr noundef %cbb, ptr noundef nonnull %ec_private_key, i8 noundef zeroext 48) #7
  %tobool.not = icmp eq i32 %call, 0
  br i1 %tobool.not, label %if.then17, label %lor.lhs.false4

lor.lhs.false4:                                   ; preds = %if.end
  %call5 = call i32 @CBB_add_asn1_uint64(ptr noundef nonnull %ec_private_key, i64 noundef 1) #7
  %tobool6.not = icmp eq i32 %call5, 0
  br i1 %tobool6.not, label %if.then17, label %lor.lhs.false7

lor.lhs.false7:                                   ; preds = %lor.lhs.false4
  %call8 = call i32 @CBB_add_asn1(ptr noundef nonnull %ec_private_key, ptr noundef nonnull %private_key, i8 noundef zeroext 4) #7
  %tobool9.not = icmp eq i32 %call8, 0
  br i1 %tobool9.not, label %if.then17, label %lor.lhs.false10

lor.lhs.false10:                                  ; preds = %lor.lhs.false7
  %2 = load ptr, ptr %key, align 8
  %call12 = call ptr @EC_GROUP_get0_order(ptr noundef %2) #7
  %call13 = call i32 @BN_num_bytes(ptr noundef %call12) #7
  %conv = zext i32 %call13 to i64
  %3 = load ptr, ptr %priv_key, align 8
  %call15 = call i32 @BN_bn2cbb_padded(ptr noundef nonnull %private_key, i64 noundef %conv, ptr noundef %3) #7
  %tobool16.not = icmp eq i32 %call15, 0
  br i1 %tobool16.not, label %if.then17, label %if.end18

if.then17:                                        ; preds = %lor.lhs.false10, %lor.lhs.false7, %lor.lhs.false4, %if.end
  call void @ERR_put_error(i32 noundef 15, i32 noundef 0, i32 noundef 129, ptr noundef nonnull @.str, i32 noundef 205) #7
  br label %return

if.end18:                                         ; preds = %lor.lhs.false10
  %and = and i32 %enc_flags, 1
  %tobool19.not = icmp eq i32 %and, 0
  br i1 %tobool19.not, label %if.then20, label %if.end32

if.then20:                                        ; preds = %if.end18
  %call21 = call i32 @CBB_add_asn1(ptr noundef nonnull %ec_private_key, ptr noundef nonnull %child, i8 noundef zeroext -96) #7
  %tobool22.not = icmp eq i32 %call21, 0
  br i1 %tobool22.not, label %if.then30, label %lor.lhs.false23

lor.lhs.false23:                                  ; preds = %if.then20
  %4 = load ptr, ptr %key, align 8
  %call25 = call i32 @EC_KEY_marshal_curve_name(ptr noundef nonnull %child, ptr noundef %4)
  %tobool26.not = icmp eq i32 %call25, 0
  br i1 %tobool26.not, label %if.then30, label %lor.lhs.false27

lor.lhs.false27:                                  ; preds = %lor.lhs.false23
  %call28 = call i32 @CBB_flush(ptr noundef nonnull %ec_private_key) #7
  %tobool29.not = icmp eq i32 %call28, 0
  br i1 %tobool29.not, label %if.then30, label %if.end32

if.then30:                                        ; preds = %lor.lhs.false27, %lor.lhs.false23, %if.then20
  call void @ERR_put_error(i32 noundef 15, i32 noundef 0, i32 noundef 129, ptr noundef nonnull @.str, i32 noundef 214) #7
  br label %return

if.end32:                                         ; preds = %lor.lhs.false27, %if.end18
  %and33 = and i32 %enc_flags, 2
  %tobool34.not = icmp eq i32 %and33, 0
  br i1 %tobool34.not, label %land.lhs.true, label %if.end57

land.lhs.true:                                    ; preds = %if.end32
  %pub_key = getelementptr inbounds nuw i8, ptr %key, i64 8
  %5 = load ptr, ptr %pub_key, align 8
  %cmp35.not = icmp eq ptr %5, null
  br i1 %cmp35.not, label %if.end57, label %if.then37

if.then37:                                        ; preds = %land.lhs.true
  %call39 = call i32 @CBB_add_asn1(ptr noundef nonnull %ec_private_key, ptr noundef nonnull %child38, i8 noundef zeroext -95) #7
  %tobool40.not = icmp eq i32 %call39, 0
  br i1 %tobool40.not, label %if.then55, label %lor.lhs.false41

lor.lhs.false41:                                  ; preds = %if.then37
  %call42 = call i32 @CBB_add_asn1(ptr noundef nonnull %child38, ptr noundef nonnull %public_key, i8 noundef zeroext 3) #7
  %tobool43.not = icmp eq i32 %call42, 0
  br i1 %tobool43.not, label %if.then55, label %lor.lhs.false44

lor.lhs.false44:                                  ; preds = %lor.lhs.false41
  %call45 = call i32 @CBB_add_u8(ptr noundef nonnull %public_key, i8 noundef zeroext 0) #7
  %tobool46.not = icmp eq i32 %call45, 0
  br i1 %tobool46.not, label %if.then55, label %lor.lhs.false47

lor.lhs.false47:                                  ; preds = %lor.lhs.false44
  %6 = load ptr, ptr %key, align 8
  %7 = load ptr, ptr %pub_key, align 8
  %conv_form = getelementptr inbounds nuw i8, ptr %key, i64 28
  %8 = load i32, ptr %conv_form, align 4
  %call50 = call i32 @EC_POINT_point2cbb(ptr noundef nonnull %public_key, ptr noundef %6, ptr noundef %7, i32 noundef %8, ptr noundef null) #7
  %tobool51.not = icmp eq i32 %call50, 0
  br i1 %tobool51.not, label %if.then55, label %lor.lhs.false52

lor.lhs.false52:                                  ; preds = %lor.lhs.false47
  %call53 = call i32 @CBB_flush(ptr noundef nonnull %ec_private_key) #7
  %tobool54.not = icmp eq i32 %call53, 0
  br i1 %tobool54.not, label %if.then55, label %if.end57

if.then55:                                        ; preds = %lor.lhs.false52, %lor.lhs.false47, %lor.lhs.false44, %lor.lhs.false41, %if.then37
  call void @ERR_put_error(i32 noundef 15, i32 noundef 0, i32 noundef 129, ptr noundef nonnull @.str, i32 noundef 230) #7
  br label %return

if.end57:                                         ; preds = %lor.lhs.false52, %land.lhs.true, %if.end32
  %call58 = call i32 @CBB_flush(ptr noundef %cbb) #7
  %tobool59.not = icmp eq i32 %call58, 0
  br i1 %tobool59.not, label %if.then60, label %return

if.then60:                                        ; preds = %if.end57
  call void @ERR_put_error(i32 noundef 15, i32 noundef 0, i32 noundef 129, ptr noundef nonnull @.str, i32 noundef 236) #7
  br label %return

return:                                           ; preds = %if.end57, %if.then60, %if.then55, %if.then30, %if.then17, %if.then
  %retval.0 = phi i32 [ 0, %if.then ], [ 0, %if.then60 ], [ 0, %if.then55 ], [ 0, %if.then30 ], [ 0, %if.then17 ], [ 1, %if.end57 ]
  ret i32 %retval.0
}